target datalayout = "e-m:e-p270:32:32-p271:32:32-p272:64:64-i64:64-i128:128-f80:128-n8:16:32:64-S128"
target triple = "x86_64-pc-linux-gnu"

%struct.lxb_selectors_t = type { ptr, ptr, i32 }
%struct.lxb_css_selector_list = type { ptr, ptr, ptr, ptr, ptr, ptr, i32 }

; Function Attrs: nounwind uwtable
define hidden void @lxb_selectors_clean(ptr noundef %0) #0 {
  %2 = alloca ptr, align 8
  store ptr %0, ptr %2, align 8
  %3 = load ptr, ptr %2, align 8
  %4 = getelementptr inbounds %struct.lxb_selectors_t, ptr %3, i32 0, i32 0
  %5 = load ptr, ptr %4, align 8
  call void @lexbor_dobject_clean(ptr noundef %5)
  %6 = load ptr, ptr %2, align 8
  %7 = getelementptr inbounds %struct.lxb_selectors_t, ptr %6, i32 0, i32 1
  %8 = load ptr, ptr %7, align 8
  call void @lexbor_dobject_clean(ptr noundef %8)
  ret void
}

; Function Attrs: nounwind uwtable
define hidden i32 @lxb_selectors_find(ptr noundef %0, ptr noundef %1, ptr noundef %2, ptr noundef %3, ptr noundef %4) #0 {
  %6 = alloca i32, align 4
  %7 = alloca ptr, align 8
  %8 = alloca ptr, align 8
  %9 = alloca ptr, align 8
  %10 = alloca ptr, align 8
  %11 = alloca ptr, align 8
  %12 = alloca ptr, align 8
  store ptr %0, ptr %7, align 8
  store ptr %1, ptr %8, align 8
  store ptr %2, ptr %9, align 8
  store ptr %3, ptr %10, align 8
  store ptr %4, ptr %11, align 8
  br label %13

13:                                               ; preds = %28, %5
  %14 = load ptr, ptr %9, align 8
  %15 = icmp ne ptr %14, null
  br i1 %15, label %16, label %32

16:                                               ; preds = %13
  %17 = load ptr, ptr %7, align 8
  %18 = load ptr, ptr %8, align 8
  %19 = load ptr, ptr %9, align 8
  %20 = getelementptr inbounds %struct.lxb_css_selector_list, ptr %19, i32 0, i32 0
  %21 = load ptr, ptr %20, align 8
  %22 = load ptr, ptr %10, align 8
  %23 = load ptr, ptr %11, align 8
  %24 = call ptr @lxb_selectors_next_by_selector(ptr noundef %17, ptr noundef %18, ptr noundef null, ptr noundef %21, ptr noundef %22, ptr noundef %23)
  store ptr %24, ptr %12, align 8
  %25 = load ptr, ptr %12, align 8
  %26 = icmp eq ptr %25, null
  br i1 %26, label %27, label %28

27:                                               ; preds = %16
  store i32 1, ptr %6, align 4
  br label %34

28:                                               ; preds = %16
  %29 = load ptr, ptr %9, align 8
  %30 = getelementptr inbounds %struct.lxb_css_selector_list, ptr %29, i32 0, i32 3
  %31 = load ptr, ptr %30, align 8
  store ptr %31, ptr %9, align 8
  br label %13

32:                                               ; preds = %13
  %33 = load ptr, ptr %7, align 8
  call void @lxb_selectors_clean(ptr noundef %33)
  store i32 0, ptr %6, align 4
  br label %34

34:                                               ; preds = %32, %27
  %35 = load i32, ptr %6, align 4
  ret i32 %35
}