; Function Attrs: nounwind uwtable
define hidden noundef i32 @lxb_selectors_find(ptr nocapture noundef %0, ptr noundef %1, ptr noundef readonly %2, ptr nocapture noundef readonly %3, ptr noundef %4) local_unnamed_addr #0 {
  %.not10 = icmp eq ptr %2, null
  br i1 %.not10, label %._crit_edge, label %.lr.ph

.lr.ph:                                           ; preds = %5, %9
  %.0911 = phi ptr [ %11, %9 ], [ %2, %5 ]
  %6 = load ptr, ptr %.0911, align 8
  %7 = tail call fastcc ptr @lxb_selectors_next_by_selector(ptr noundef %0, ptr noundef %1, ptr noundef null, ptr noundef %6, ptr noundef %3, ptr noundef %4)
  %8 = icmp eq ptr %7, null
  br i1 %8, label %.loopexit, label %9

9:                                                ; preds = %.lr.ph
  %10 = getelementptr inbounds i8, ptr %.0911, i64 24
  %11 = load ptr, ptr %10, align 8
  %.not = icmp eq ptr %11, null
  br i1 %.not, label %._crit_edge, label %.lr.ph

._crit_edge:                                      ; preds = %9, %5
  %12 = load ptr, ptr %0, align 8
  tail call void @lexbor_dobject_clean(ptr noundef %12) #6
  %13 = getelementptr inbounds i8, ptr %0, i64 8
  %14 = load ptr, ptr %13, align 8
  tail call void @lexbor_dobject_clean(ptr noundef %14) #6
  br label %.loopexit

.loopexit:                                        ; preds = %.lr.ph, %._crit_edge
  %.0 = phi i32 [ 0, %._crit_edge ], [ 1, %.lr.ph ]
  ret i32 %.0
}